; Function Attrs: alwaysinline norecurse nounwind ssp uwtable
define internal void @"_ZN6open3d4core15ParallelForCPU_IZZZNS_1t2ioL17PackColorsToFloatERKNS0_6TensorEENK3$_0clEvENKUlvE2_clEvEUllE_EEvRKNS0_6DeviceElRKT_.omp_outlined"(ptr noalias noundef readonly captures(none) %0, ptr noalias readnone captures(none) %1, ptr noundef nonnull readonly align 8 captures(none) dereferenceable(8) %2, ptr nonnull readonly align 8 captures(none) %3) #29 personality ptr @__gxx_personality_v0 {
  %5 = alloca i64, align 8
  %6 = alloca i64, align 8
  %7 = alloca i64, align 8
  %8 = alloca i32, align 4
  %9 = load i64, ptr %2, align 8, !tbaa !51
  %10 = icmp sgt i64 %9, 0
  br i1 %10, label %11, label %19

11:                                               ; preds = %4
  %12 = add nsw i64 %9, -1
  call void @llvm.lifetime.start.p0(i64 8, ptr nonnull %5) #30
  store i64 0, ptr %5, align 8, !tbaa !51
  call void @llvm.lifetime.start.p0(i64 8, ptr nonnull %6) #30
  store i64 %12, ptr %6, align 8, !tbaa !51
  call void @llvm.lifetime.start.p0(i64 8, ptr nonnull %7) #30
  store i64 1, ptr %7, align 8, !tbaa !51
  call void @llvm.lifetime.start.p0(i64 4, ptr nonnull %8) #30
  store i32 0, ptr %8, align 4, !tbaa !28
  %13 = load i32, ptr %0, align 4, !tbaa !28
  call void @__kmpc_for_static_init_8(ptr nonnull @1, i32 %13, i32 34, ptr nonnull %8, ptr nonnull %5, ptr nonnull %6, ptr nonnull %7, i64 1, i64 1)
  %14 = load i64, ptr %6, align 8, !tbaa !51
  %15 = call i64 @llvm.smin.i64(i64 %14, i64 %12)
  store i64 %15, ptr %6, align 8, !tbaa !51
  %16 = load i64, ptr %5, align 8, !tbaa !51
  %.not = icmp sgt i64 %16, %15
  br i1 %.not, label %18, label %17

17:                                               ; preds = %11
  invoke void @_ZN6open3d7utility6Logger9LogError_IJEEEvPKciS4_S4_DpOT_(ptr noundef nonnull @.str.6, i32 noundef 841, ptr noundef nonnull @__PRETTY_FUNCTION__._ZN6open3d1t2ioL12ColorToUint8IsEEvPKT_Ph, ptr noundef nonnull @.str.138) #38
          to label %.noexc unwind label %20

.noexc:                                           ; preds = %17
  unreachable

18:                                               ; preds = %11
  call void @__kmpc_for_static_fini(ptr nonnull @1, i32 %13)
  call void @llvm.lifetime.end.p0(i64 4, ptr nonnull %8) #30
  call void @llvm.lifetime.end.p0(i64 8, ptr nonnull %7) #30
  call void @llvm.lifetime.end.p0(i64 8, ptr nonnull %6) #30
  call void @llvm.lifetime.end.p0(i64 8, ptr nonnull %5) #30
  br label %19

19:                                               ; preds = %18, %4
  ret void

20:                                               ; preds = %17
  %21 = landingpad { ptr, i32 }
          catch ptr null
  %22 = extractvalue { ptr, i32 } %21, 0
  call void @__clang_call_terminate(ptr %22) #40
  unreachable
}